target datalayout = "e-m:e-p270:32:32-p271:32:32-p272:64:64-i64:64-i128:128-f80:128-n8:16:32:64-S128"
target triple = "x86_64-pc-linux-gnu"

%"class.icu_77::UObject" = type { ptr }
%"class.icu_77::UnicodeString" = type { %"class.icu_77::Replaceable", %"union.icu_77::UnicodeString::StackBufferOrFields" }
%"class.icu_77::Replaceable" = type { %"class.icu_77::UObject" }
%"union.icu_77::UnicodeString::StackBufferOrFields" = type { %struct.anon.0, [32 x i8] }
%struct.anon.0 = type { i16, i32, i32, ptr }
%"class.icu_77::ScientificNumberFormatter" = type { %"class.icu_77::UObject", %"class.icu_77::UnicodeString", ptr, ptr }
%struct.anon = type { i16, [27 x i16] }
%"class.icu_77::DecimalFormatSymbols" = type <{ %"class.icu_77::UObject", [29 x %"class.icu_77::UnicodeString"], %"class.icu_77::UnicodeString", i32, [4 x i8], %"class.icu_77::Locale", ptr, ptr, ptr, [3 x %"class.icu_77::UnicodeString"], [3 x %"class.icu_77::UnicodeString"], i8, i8, [9 x i8], [5 x i8] }>
%"class.icu_77::Locale" = type <{ %"class.icu_77::UObject", [12 x i8], [6 x i8], [4 x i8], [2 x i8], i32, [4 x i8], ptr, [157 x i8], [3 x i8], ptr, i8, [7 x i8] }>

@_ZTVN6icu_777UObjectE = available_externally unnamed_addr constant { [5 x ptr] } { [5 x ptr] [ptr null, ptr @_ZTIN6icu_777UObjectE, ptr @_ZN6icu_777UObjectD1Ev, ptr @_ZN6icu_777UObjectD0Ev, ptr @_ZNK6icu_777UObject17getDynamicClassIDEv] }, align 8

; Function Attrs: inlinehint mustprogress nounwind uwtable
define linkonce_odr noundef i32 @_ZNK6icu_7713UnicodeString14getShortLengthEv(ptr noundef nonnull align 8 dereferenceable(64) %0) #3 comdat align 2 {
  %2 = alloca ptr, align 8
  store ptr %0, ptr %2, align 8, !tbaa !21
  %3 = load ptr, ptr %2, align 8
  %4 = getelementptr inbounds nuw %"class.icu_77::UnicodeString", ptr %3, i32 0, i32 1
  %5 = getelementptr inbounds nuw %struct.anon.0, ptr %4, i32 0, i32 0
  %6 = load i16, ptr %5, align 8, !tbaa !53
  %7 = sext i16 %6 to i32
  %8 = ashr i32 %7, 5
  ret i32 %8
}

; Function Attrs: inlinehint mustprogress nounwind uwtable
define linkonce_odr noundef signext i8 @_ZNK6icu_7713UnicodeString14hasShortLengthEv(ptr noundef nonnull align 8 dereferenceable(64) %0) #3 comdat align 2 {
  %2 = alloca ptr, align 8
  store ptr %0, ptr %2, align 8, !tbaa !21
  %3 = load ptr, ptr %2, align 8
  %4 = getelementptr inbounds nuw %"class.icu_77::UnicodeString", ptr %3, i32 0, i32 1
  %5 = getelementptr inbounds nuw %struct.anon.0, ptr %4, i32 0, i32 0
  %6 = load i16, ptr %5, align 8, !tbaa !53
  %7 = sext i16 %6 to i32
  %8 = icmp sge i32 %7, 0
  %9 = zext i1 %8 to i8
  ret i8 %9
}

; Function Attrs: inlinehint mustprogress uwtable
define linkonce_odr noundef i32 @_ZNK6icu_7713UnicodeString6lengthEv(ptr noundef nonnull align 8 dereferenceable(64) %0) #7 comdat align 2 {
  %2 = alloca ptr, align 8
  store ptr %0, ptr %2, align 8, !tbaa !21
  %3 = load ptr, ptr %2, align 8
  %4 = call noundef signext i8 @_ZNK6icu_7713UnicodeString14hasShortLengthEv(ptr noundef nonnull align 8 dereferenceable(64) %3)
  %5 = icmp ne i8 %4, 0
  br i1 %5, label %6, label %8

6:                                                ; preds = %1
  %7 = call noundef i32 @_ZNK6icu_7713UnicodeString14getShortLengthEv(ptr noundef nonnull align 8 dereferenceable(64) %3)
  br label %12

8:                                                ; preds = %1
  %9 = getelementptr inbounds nuw %"class.icu_77::UnicodeString", ptr %3, i32 0, i32 1
  %10 = getelementptr inbounds nuw %struct.anon.0, ptr %9, i32 0, i32 1
  %11 = load i32, ptr %10, align 4, !tbaa !53
  br label %12

12:                                               ; preds = %8, %6
  %13 = phi i32 [ %7, %6 ], [ %11, %8 ]
  ret i32 %13
}

; Function Attrs: inlinehint mustprogress uwtable
define linkonce_odr noundef nonnull align 8 dereferenceable(64) ptr @_ZN6icu_7713UnicodeString6appendERKS0_(ptr noundef nonnull align 8 dereferenceable(64) %0, ptr noundef nonnull align 8 dereferenceable(64) %1) #7 comdat align 2 {
  %3 = alloca ptr, align 8
  %4 = alloca ptr, align 8
  store ptr %0, ptr %3, align 8, !tbaa !21
  store ptr %1, ptr %4, align 8, !tbaa !21
  %5 = load ptr, ptr %3, align 8
  %6 = load ptr, ptr %4, align 8, !tbaa !21
  %7 = load ptr, ptr %4, align 8, !tbaa !21
  %8 = call noundef i32 @_ZNK6icu_7713UnicodeString6lengthEv(ptr noundef nonnull align 8 dereferenceable(64) %7)
  %9 = call noundef nonnull align 8 dereferenceable(64) ptr @_ZN6icu_7713UnicodeString8doAppendERKS0_ii(ptr noundef nonnull align 8 dereferenceable(64) %5, ptr noundef nonnull align 8 dereferenceable(64) %6, i32 noundef 0, i32 noundef %8)
  ret ptr %9
}

; Function Attrs: inlinehint mustprogress nounwind uwtable
define linkonce_odr noundef nonnull align 8 dereferenceable(64) ptr @_ZNK6icu_7720DecimalFormatSymbols14getConstSymbolENS0_19ENumberFormatSymbolE(ptr noundef nonnull align 8 dereferenceable(2579) %0, i32 noundef %1) #3 comdat align 2 {
  %3 = alloca ptr, align 8
  %4 = alloca i32, align 4
  %5 = alloca ptr, align 8
  store ptr %0, ptr %3, align 8, !tbaa !60
  store i32 %1, ptr %4, align 4, !tbaa !66
  %6 = load ptr, ptr %3, align 8
  call void @llvm.lifetime.start.p0(i64 8, ptr %5) #9
  %7 = load i32, ptr %4, align 4, !tbaa !66
  %8 = icmp slt i32 %7, 29
  br i1 %8, label %9, label %14

9:                                                ; preds = %2
  %10 = getelementptr inbounds nuw %"class.icu_77::DecimalFormatSymbols", ptr %6, i32 0, i32 1
  %11 = load i32, ptr %4, align 4, !tbaa !66
  %12 = zext i32 %11 to i64
  %13 = getelementptr inbounds nuw [29 x %"class.icu_77::UnicodeString"], ptr %10, i64 0, i64 %12
  store ptr %13, ptr %5, align 8, !tbaa !21
  br label %16

14:                                               ; preds = %2
  %15 = getelementptr inbounds nuw %"class.icu_77::DecimalFormatSymbols", ptr %6, i32 0, i32 2
  store ptr %15, ptr %5, align 8, !tbaa !21
  br label %16

16:                                               ; preds = %14, %9
  %17 = load ptr, ptr %5, align 8, !tbaa !21
  call void @llvm.lifetime.end.p0(i64 8, ptr %5) #9
  ret ptr %17
}

; Function Attrs: inlinehint mustprogress nounwind uwtable
define linkonce_odr void @_ZN6icu_7711ReplaceableC2Ev(ptr noundef nonnull align 8 dereferenceable(8) %0) unnamed_addr #3 comdat align 2 {
  %2 = alloca ptr, align 8
  store ptr %0, ptr %2, align 8, !tbaa !68
  %3 = load ptr, ptr %2, align 8
  call void @_ZN6icu_777UObjectC2Ev(ptr noundef nonnull align 8 dereferenceable(8) %3) #9
  store ptr getelementptr inbounds inrange(-16, 88) ({ [13 x ptr] }, ptr @_ZTVN6icu_7711ReplaceableE, i32 0, i32 0, i32 2), ptr %3, align 8, !tbaa !15
  ret void
}

; Function Attrs: mustprogress uwtable
define void @_ZN6icu_7725ScientificNumberFormatter14getPreExponentERKNS_20DecimalFormatSymbolsERNS_13UnicodeStringE(ptr noundef nonnull align 8 dereferenceable(2579) %0, ptr noundef nonnull align 8 dereferenceable(64) %1) #0 align 2 {
  %3 = alloca ptr, align 8
  %4 = alloca ptr, align 8
  store ptr %0, ptr %3, align 8, !tbaa !60
  store ptr %1, ptr %4, align 8, !tbaa !21
  %5 = load ptr, ptr %4, align 8, !tbaa !21
  %6 = load ptr, ptr %3, align 8, !tbaa !60
  %7 = call noundef nonnull align 8 dereferenceable(64) ptr @_ZNK6icu_7720DecimalFormatSymbols14getConstSymbolENS0_19ENumberFormatSymbolE(ptr noundef nonnull align 8 dereferenceable(2579) %6, i32 noundef 27)
  %8 = call noundef nonnull align 8 dereferenceable(64) ptr @_ZN6icu_7713UnicodeString6appendERKS0_(ptr noundef nonnull align 8 dereferenceable(64) %5, ptr noundef nonnull align 8 dereferenceable(64) %7)
  %9 = load ptr, ptr %4, align 8, !tbaa !21
  %10 = load ptr, ptr %3, align 8, !tbaa !60
  %11 = call noundef nonnull align 8 dereferenceable(64) ptr @_ZNK6icu_7720DecimalFormatSymbols14getConstSymbolENS0_19ENumberFormatSymbolE(ptr noundef nonnull align 8 dereferenceable(2579) %10, i32 noundef 18)
  %12 = call noundef nonnull align 8 dereferenceable(64) ptr @_ZN6icu_7713UnicodeString6appendERKS0_(ptr noundef nonnull align 8 dereferenceable(64) %9, ptr noundef nonnull align 8 dereferenceable(64) %11)
  %13 = load ptr, ptr %4, align 8, !tbaa !21
  %14 = load ptr, ptr %3, align 8, !tbaa !60
  %15 = call noundef nonnull align 8 dereferenceable(64) ptr @_ZNK6icu_7720DecimalFormatSymbols14getConstSymbolENS0_19ENumberFormatSymbolE(ptr noundef nonnull align 8 dereferenceable(2579) %14, i32 noundef 4)
  %16 = call noundef nonnull align 8 dereferenceable(64) ptr @_ZN6icu_7713UnicodeString6appendERKS0_(ptr noundef nonnull align 8 dereferenceable(64) %13, ptr noundef nonnull align 8 dereferenceable(64) %15)
  ret void
}

; Function Attrs: inlinehint mustprogress nounwind uwtable
define internal noundef signext i8 @_ZL9U_FAILURE10UErrorCode(i32 noundef %0) #3 {
  %2 = alloca i32, align 4
  store i32 %0, ptr %2, align 4, !tbaa !11
  %3 = load i32, ptr %2, align 4, !tbaa !11
  %4 = icmp sgt i32 %3, 0
  %5 = zext i1 %4 to i8
  ret i8 %5
}

; Function Attrs: inlinehint mustprogress uwtable
define linkonce_odr void @_ZN6icu_7713UnicodeStringC2Ev(ptr noundef nonnull align 8 dereferenceable(64) %0) unnamed_addr #7 comdat align 2 {
  %2 = alloca ptr, align 8
  store ptr %0, ptr %2, align 8, !tbaa !21
  %3 = load ptr, ptr %2, align 8
  call void @_ZN6icu_7711ReplaceableC2Ev(ptr noundef nonnull align 8 dereferenceable(8) %3)
  store ptr getelementptr inbounds inrange(-16, 88) ({ [13 x ptr] }, ptr @_ZTVN6icu_7713UnicodeStringE, i32 0, i32 0, i32 2), ptr %3, align 8, !tbaa !15
  %4 = getelementptr inbounds nuw %"class.icu_77::UnicodeString", ptr %3, i32 0, i32 1
  %5 = getelementptr inbounds nuw %struct.anon, ptr %4, i32 0, i32 0
  store i16 2, ptr %5, align 8, !tbaa !53
  ret void
}

; Function Attrs: inlinehint mustprogress nounwind uwtable
define linkonce_odr void @_ZN6icu_777UObjectC2Ev(ptr noundef nonnull align 8 dereferenceable(8) %0) unnamed_addr #3 comdat align 2 {
  %2 = alloca ptr, align 8
  store ptr %0, ptr %2, align 8, !tbaa !62
  %3 = load ptr, ptr %2, align 8
  store ptr getelementptr inbounds inrange(-16, 24) ({ [5 x ptr] }, ptr @_ZTVN6icu_777UObjectE, i32 0, i32 0, i32 2), ptr %3, align 8, !tbaa !15
  ret void
}

; Function Attrs: mustprogress uwtable
define void @_ZN6icu_7725ScientificNumberFormatterC2EPNS_13DecimalFormatEPNS0_5StyleER10UErrorCode(ptr noundef nonnull align 8 dereferenceable(88) %0, ptr noundef %1, ptr noundef %2, ptr noundef nonnull align 4 dereferenceable(4) %3) unnamed_addr #0 align 2 personality ptr @__gxx_personality_v0 {
  %5 = alloca ptr, align 8
  %6 = alloca ptr, align 8
  %7 = alloca ptr, align 8
  %8 = alloca ptr, align 8
  %9 = alloca ptr, align 8
  %10 = alloca i32, align 4
  %11 = alloca ptr, align 8
  %12 = alloca i32, align 4
  store ptr %0, ptr %5, align 8, !tbaa !13
  store ptr %1, ptr %6, align 8, !tbaa !3
  store ptr %2, ptr %7, align 8, !tbaa !9
  store ptr %3, ptr %8, align 8, !tbaa !8
  %13 = load ptr, ptr %5, align 8
  call void @_ZN6icu_777UObjectC2Ev(ptr noundef nonnull align 8 dereferenceable(8) %13) #9
  store ptr getelementptr inbounds inrange(-16, 24) ({ [5 x ptr] }, ptr @_ZTVN6icu_7725ScientificNumberFormatterE, i32 0, i32 0, i32 2), ptr %13, align 8, !tbaa !15
  %14 = getelementptr inbounds nuw %"class.icu_77::ScientificNumberFormatter", ptr %13, i32 0, i32 1
  invoke void @_ZN6icu_7713UnicodeStringC2Ev(ptr noundef nonnull align 8 dereferenceable(64) %14)
          to label %15 unwind label %26

15:                                               ; preds = %4
  %16 = getelementptr inbounds nuw %"class.icu_77::ScientificNumberFormatter", ptr %13, i32 0, i32 2
  %17 = load ptr, ptr %6, align 8, !tbaa !3
  store ptr %17, ptr %16, align 8, !tbaa !55
  %18 = getelementptr inbounds nuw %"class.icu_77::ScientificNumberFormatter", ptr %13, i32 0, i32 3
  %19 = load ptr, ptr %7, align 8, !tbaa !9
  store ptr %19, ptr %18, align 8, !tbaa !59
  %20 = load ptr, ptr %8, align 8, !tbaa !8
  %21 = load i32, ptr %20, align 4, !tbaa !11
  %22 = invoke noundef signext i8 @_ZL9U_FAILURE10UErrorCode(i32 noundef %21)
          to label %23 unwind label %30

23:                                               ; preds = %15
  %24 = icmp ne i8 %22, 0
  br i1 %24, label %25, label %34

25:                                               ; preds = %23
  br label %66

26:                                               ; preds = %4
  %27 = landingpad { ptr, i32 }
          cleanup
  %28 = extractvalue { ptr, i32 } %27, 0
  store ptr %28, ptr %9, align 8
  %29 = extractvalue { ptr, i32 } %27, 1
  store i32 %29, ptr %10, align 4
  br label %68

30:                                               ; preds = %15
  %31 = landingpad { ptr, i32 }
          cleanup
  %32 = extractvalue { ptr, i32 } %31, 0
  store ptr %32, ptr %9, align 8
  %33 = extractvalue { ptr, i32 } %31, 1
  store i32 %33, ptr %10, align 4
  br label %67

34:                                               ; preds = %23
  %35 = getelementptr inbounds nuw %"class.icu_77::ScientificNumberFormatter", ptr %13, i32 0, i32 2
  %36 = load ptr, ptr %35, align 8, !tbaa !55
  %37 = icmp eq ptr %36, null
  br i1 %37, label %42, label %38

38:                                               ; preds = %34
  %39 = getelementptr inbounds nuw %"class.icu_77::ScientificNumberFormatter", ptr %13, i32 0, i32 3
  %40 = load ptr, ptr %39, align 8, !tbaa !59
  %41 = icmp eq ptr %40, null
  br i1 %41, label %42, label %44

42:                                               ; preds = %38, %34
  %43 = load ptr, ptr %8, align 8, !tbaa !8
  store i32 1, ptr %43, align 4, !tbaa !11
  br label %66

44:                                               ; preds = %38
  call void @llvm.lifetime.start.p0(i64 8, ptr %11) #9
  %45 = getelementptr inbounds nuw %"class.icu_77::ScientificNumberFormatter", ptr %13, i32 0, i32 2
  %46 = load ptr, ptr %45, align 8, !tbaa !55
  %47 = load ptr, ptr %46, align 8, !tbaa !15
  %48 = getelementptr inbounds ptr, ptr %47, i64 39
  %49 = load ptr, ptr %48, align 8
  %50 = invoke noundef ptr %49(ptr noundef nonnull align 8 dereferenceable(72) %46)
          to label %51 unwind label %56

51:                                               ; preds = %44
  store ptr %50, ptr %11, align 8, !tbaa !60
  %52 = load ptr, ptr %11, align 8, !tbaa !60
  %53 = icmp eq ptr %52, null
  br i1 %53, label %54, label %60

54:                                               ; preds = %51
  %55 = load ptr, ptr %8, align 8, !tbaa !8
  store i32 1, ptr %55, align 4, !tbaa !11
  store i32 1, ptr %12, align 4
  br label %64

56:                                               ; preds = %60, %44
  %57 = landingpad { ptr, i32 }
          cleanup
  %58 = extractvalue { ptr, i32 } %57, 0
  store ptr %58, ptr %9, align 8
  %59 = extractvalue { ptr, i32 } %57, 1
  store i32 %59, ptr %10, align 4
  call void @llvm.lifetime.end.p0(i64 8, ptr %11) #9
  br label %67

60:                                               ; preds = %51
  %61 = load ptr, ptr %11, align 8, !tbaa !60
  %62 = getelementptr inbounds nuw %"class.icu_77::ScientificNumberFormatter", ptr %13, i32 0, i32 1
  invoke void @_ZN6icu_7725ScientificNumberFormatter14getPreExponentERKNS_20DecimalFormatSymbolsERNS_13UnicodeStringE(ptr noundef nonnull align 8 dereferenceable(2579) %61, ptr noundef nonnull align 8 dereferenceable(64) %62)
          to label %63 unwind label %56

63:                                               ; preds = %60
  store i32 0, ptr %12, align 4
  br label %64

64:                                               ; preds = %63, %54
  call void @llvm.lifetime.end.p0(i64 8, ptr %11) #9
  %65 = load i32, ptr %12, align 4
  switch i32 %65, label %74 [
    i32 0, label %66
    i32 1, label %66
  ]

66:                                               ; preds = %25, %42, %64, %64
  ret void

67:                                               ; preds = %56, %30
  call void @_ZN6icu_7713UnicodeStringD1Ev(ptr noundef nonnull align 8 dereferenceable(64) %14) #9
  br label %68

68:                                               ; preds = %67, %26
  call void @_ZN6icu_777UObjectD2Ev(ptr noundef nonnull align 8 dereferenceable(8) %13) #9
  br label %69

69:                                               ; preds = %68
  %70 = load ptr, ptr %9, align 8
  %71 = load i32, ptr %10, align 4
  %72 = insertvalue { ptr, i32 } poison, ptr %70, 0
  %73 = insertvalue { ptr, i32 } %72, i32 %71, 1
  resume { ptr, i32 } %73

74:                                               ; preds = %64
  unreachable
}