; Function Attrs: mustprogress uwtable
define void @_ZN6icu_7725ScientificNumberFormatterC2EPNS_13DecimalFormatEPNS0_5StyleER10UErrorCode(ptr noundef nonnull align 8 dereferenceable(88) initializes((0, 18), (72, 88)) %0, ptr noundef %1, ptr noundef %2, ptr noundef nonnull align 4 captures(none) dereferenceable(4) %3) unnamed_addr #0 align 2 personality ptr @__gxx_personality_v0 {
  store ptr getelementptr inbounds nuw inrange(-16, 24) (i8, ptr @_ZTVN6icu_7725ScientificNumberFormatterE, i64 16), ptr %0, align 8, !tbaa !3
  %5 = getelementptr inbounds nuw i8, ptr %0, i64 8
  store ptr getelementptr inbounds nuw inrange(-16, 88) (i8, ptr @_ZTVN6icu_7713UnicodeStringE, i64 16), ptr %5, align 8, !tbaa !3
  %6 = getelementptr inbounds nuw i8, ptr %0, i64 16
  store i16 2, ptr %6, align 8, !tbaa !17
  %7 = getelementptr inbounds nuw i8, ptr %0, i64 72
  store ptr %1, ptr %7, align 8, !tbaa !22
  %8 = getelementptr inbounds nuw i8, ptr %0, i64 80
  store ptr %2, ptr %8, align 8, !tbaa !29
  %9 = load i32, ptr %3, align 4, !tbaa !6
  %10 = icmp slt i32 %9, 1
  br i1 %10, label %11, label %_ZN6icu_7725ScientificNumberFormatter14getPreExponentERKNS_20DecimalFormatSymbolsERNS_13UnicodeStringE.exit

11:                                               ; preds = %4
  %12 = icmp eq ptr %1, null
  %13 = icmp eq ptr %2, null
  %or.cond = or i1 %12, %13
  br i1 %or.cond, label %_ZN6icu_7725ScientificNumberFormatter14getPreExponentERKNS_20DecimalFormatSymbolsERNS_13UnicodeStringE.exit.sink.split, label %14

14:                                               ; preds = %11
  %15 = load ptr, ptr %1, align 8, !tbaa !3
  %16 = getelementptr inbounds nuw i8, ptr %15, i64 312
  %17 = load ptr, ptr %16, align 8
  %18 = invoke noundef ptr %17(ptr noundef nonnull align 8 dereferenceable(72) %1)
          to label %19 unwind label %21

19:                                               ; preds = %14
  %20 = icmp eq ptr %18, null
  br i1 %20, label %_ZN6icu_7725ScientificNumberFormatter14getPreExponentERKNS_20DecimalFormatSymbolsERNS_13UnicodeStringE.exit.sink.split, label %23

21:                                               ; preds = %.noexc14, %.noexc, %23, %14
  %22 = landingpad { ptr, i32 }
          cleanup
  tail call void @_ZN6icu_7713UnicodeStringD1Ev(ptr noundef nonnull align 8 dereferenceable(64) %5) #7
  tail call void @_ZN6icu_777UObjectD2Ev(ptr noundef nonnull align 8 dereferenceable(8) %0) #7
  resume { ptr, i32 } %22

23:                                               ; preds = %19
  %24 = getelementptr inbounds nuw i8, ptr %18, i64 1736
  %25 = getelementptr inbounds nuw i8, ptr %18, i64 1744
  %26 = load i16, ptr %25, align 8, !tbaa !17
  %27 = icmp slt i16 %26, 0
  %28 = ashr i16 %26, 5
  %29 = sext i16 %28 to i32
  %30 = getelementptr inbounds nuw i8, ptr %18, i64 1748
  %31 = load i32, ptr %30, align 4
  %32 = select i1 %27, i32 %31, i32 %29
  %33 = invoke noundef nonnull align 8 dereferenceable(64) ptr @_ZN6icu_7713UnicodeString8doAppendERKS0_ii(ptr noundef nonnull align 8 dereferenceable(64) %5, ptr noundef nonnull align 8 dereferenceable(64) %24, i32 noundef 0, i32 noundef %32)
          to label %.noexc unwind label %21

.noexc:                                           ; preds = %23
  %34 = getelementptr inbounds nuw i8, ptr %18, i64 1160
  %35 = getelementptr inbounds nuw i8, ptr %18, i64 1168
  %36 = load i16, ptr %35, align 8, !tbaa !17
  %37 = icmp slt i16 %36, 0
  %38 = ashr i16 %36, 5
  %39 = sext i16 %38 to i32
  %40 = getelementptr inbounds nuw i8, ptr %18, i64 1172
  %41 = load i32, ptr %40, align 4
  %42 = select i1 %37, i32 %41, i32 %39
  %43 = invoke noundef nonnull align 8 dereferenceable(64) ptr @_ZN6icu_7713UnicodeString8doAppendERKS0_ii(ptr noundef nonnull align 8 dereferenceable(64) %5, ptr noundef nonnull align 8 dereferenceable(64) %34, i32 noundef 0, i32 noundef %42)
          to label %.noexc14 unwind label %21

.noexc14:                                         ; preds = %.noexc
  %44 = getelementptr inbounds nuw i8, ptr %18, i64 264
  %45 = getelementptr inbounds nuw i8, ptr %18, i64 272
  %46 = load i16, ptr %45, align 8, !tbaa !17
  %47 = icmp slt i16 %46, 0
  %48 = ashr i16 %46, 5
  %49 = sext i16 %48 to i32
  %50 = getelementptr inbounds nuw i8, ptr %18, i64 276
  %51 = load i32, ptr %50, align 4
  %52 = select i1 %47, i32 %51, i32 %49
  %53 = invoke noundef nonnull align 8 dereferenceable(64) ptr @_ZN6icu_7713UnicodeString8doAppendERKS0_ii(ptr noundef nonnull align 8 dereferenceable(64) %5, ptr noundef nonnull align 8 dereferenceable(64) %44, i32 noundef 0, i32 noundef %52)
          to label %_ZN6icu_7725ScientificNumberFormatter14getPreExponentERKNS_20DecimalFormatSymbolsERNS_13UnicodeStringE.exit unwind label %21

_ZN6icu_7725ScientificNumberFormatter14getPreExponentERKNS_20DecimalFormatSymbolsERNS_13UnicodeStringE.exit.sink.split: ; preds = %19, %11
  store i32 1, ptr %3, align 4, !tbaa !6
  br label %_ZN6icu_7725ScientificNumberFormatter14getPreExponentERKNS_20DecimalFormatSymbolsERNS_13UnicodeStringE.exit

_ZN6icu_7725ScientificNumberFormatter14getPreExponentERKNS_20DecimalFormatSymbolsERNS_13UnicodeStringE.exit: ; preds = %_ZN6icu_7725ScientificNumberFormatter14getPreExponentERKNS_20DecimalFormatSymbolsERNS_13UnicodeStringE.exit.sink.split, %.noexc14, %4
  ret void
}